(dp1
I0
(dp2
I1
(dp3
S'A'
(lp4
I23
aS'Female'
p5
aS'Yes'
p6
aS'4'
aS'7'
aS'6'
aS'4'
aS'5'
aS'6'
aS'6'
aS'6'
aS'2'
asS'B'
(lp7
I23
aS'Female'
p8
aS'Yes'
p9
aS'4'
aS'7'
aS'5'
aS'5'
aS'3'
aS'1'
aS'1'
aS'1'
aS'1'
assI2
(dp10
S'A'
(lp11
I23
aS'Female'
p12
aS'Yes'
p13
aS'3'
aS'6'
aS'6'
aS'3'
aS'5'
aS'6'
aS'7'
aS'4'
aS'3'
asS'B'
(lp14
I23
aS'Female'
p15
aS'Yes'
p16
aS'3'
aS'5'
aS'2'
aS'4'
aS'2'
aS'2'
aS'1'
aS'3'
aS'5'
asssI1
(dp17
I1
(dp18
S'A'
(lp19
I22
aS'Female'
p20
aS'Yes'
p21
aS'6'
aS'6'
aS'3'
aS'6'
aS'3'
aS'6'
aS'6'
aS'6'
aS'3'
asS'B'
(lp22
I22
aS'Female'
p23
aS'Yes'
p24
aS'6'
aS'6'
aS'3'
aS'6'
aS'2'
aS'3'
aS'6'
aS'5'
aS'2'
assI2
(dp25
S'A'
(lp26
I22
aS'Female'
p27
aS'Yes'
p28
aS'6'
aS'6'
aS'4'
aS'6'
aS'4'
aS'6'
aS'6'
aS'6'
aS'4'
asS'B'
(lp29
I22
aS'Female'
p30
aS'Yes'
p31
aS'6'
aS'6'
aS'2'
aS'6'
aS'2'
aS'3'
aS'4'
aS'2'
aS'2'
asssI2
(dp32
I1
(dp33
S'A'
(lp34
I24
aS'Female'
p35
aS'Yes'
p36
aS'5'
aS'5'
aS'5'
aS'5'
aS'4'
aS'4'
aS'5'
aS'5'
aS'4'
asS'B'
(lp37
I24
aS'Female'
p38
aS'Yes'
p39
aS'5'
aS'5'
aS'3'
aS'5'
aS'3'
aS'3'
aS'4'
aS'3'
aS'4'
assI2
(dp40
S'A'
(lp41
I24
aS'Female'
p42
aS'Yes'
p43
aS'5'
aS'5'
aS'5'
aS'4'
aS'4'
aS'5'
aS'5'
aS'4'
aS'5'
asS'B'
(lp44
I24
aS'Female'
p45
aS'Yes'
p46
aS'6'
aS'6'
aS'3'
aS'5'
aS'3'
aS'3'
aS'3'
aS'3'
aS'4'
asssI3
(dp47
I1
(dp48
S'A'
(lp49
I23
aS'Male'
p50
aS'Yes'
p51
aS'4'
aS'3'
aS'6'
aS'2'
aS'6'
aS'6'
aS'6'
aS'6'
aS'3'
asS'B'
(lp52
I23
aS'Male'
p53
aS'Yes'
p54
aS'6'
aS'6'
aS'2'
aS'6'
aS'2'
aS'2'
aS'2'
aS'2'
aS'2'
assI2
(dp55
S'A'
(lp56
I23
aS'Male'
p57
aS'Yes'
p58
aS'2'
aS'2'
aS'6'
aS'1'
aS'7'
aS'7'
aS'7'
aS'7'
aS'6'
asS'B'
(lp59
I23
aS'Male'
p60
aS'Yes'
p61
aS'5'
aS'5'
aS'2'
aS'5'
aS'3'
aS'3'
aS'3'
aS'2'
aS'2'
asssI4
(dp62
I1
(dp63
S'A'
(lp64
I22
aS'Female'
p65
aS'Yes'
p66
aS'6'
aS'7'
aS'2'
aS'6'
aS'2'
aS'1'
aS'1'
aS'1'
aS'2'
asS'B'
(lp67
I22
aS'Female'
p68
aS'Yes'
p69
aS'6'
aS'6'
aS'3'
aS'5'
aS'5'
aS'5'
aS'6'
aS'5'
aS'2'
assI2
(dp70
S'A'
(lp71
I22
aS'Female'
p72
aS'Yes'
p73
aS'5'
aS'5'
aS'4'
aS'4'
aS'6'
aS'6'
aS'7'
aS'6'
aS'3'
asS'B'
(lp74
I22
aS'Female'
p75
aS'Yes'
p76
aS'5'
aS'4'
aS'4'
aS'5'
aS'4'
aS'6'
aS'6'
aS'5'
aS'3'
asssI5
(dp77
I1
(dp78
S'A'
(lp79
I23
aS'Male'
p80
aS'Yes'
p81
aS'7'
aS'6'
aS'1'
aS'6'
aS'2'
aS'1'
aS'3'
aS'1'
aS'1'
asS'B'
(lp82
I23
aS'Male'
p83
aS'Yes'
p84
aS'5'
aS'5'
aS'2'
aS'5'
aS'2'
aS'1'
aS'1'
aS'2'
aS'4'
assI2
(dp85
S'A'
(lp86
I23
aS'Male'
p87
aS'Yes'
p88
aS'7'
aS'7'
aS'1'
aS'7'
aS'1'
aS'1'
aS'1'
aS'1'
aS'1'
asS'B'
(lp89
I23
aS'Male'
p90
aS'Yes'
p91
aS'6'
aS'5'
aS'2'
aS'6'
aS'3'
aS'2'
aS'3'
aS'3'
aS'2'
asssI6
(dp92
I1
(dp93
S'A'
(lp94
I24
aS'Male'
p95
aS'Yes'
p96
aS'5'
aS'5'
aS'5'
aS'3'
aS'5'
aS'6'
aS'6'
aS'5'
aS'3'
asS'B'
(lp97
I24
aS'Male'
p98
aS'Yes'
p99
aS'6'
aS'5'
aS'4'
aS'5'
aS'3'
aS'2'
aS'2'
aS'2'
aS'2'
assI2
(dp100
S'A'
(lp101
I24
aS'Male'
p102
aS'Yes'
p103
aS'6'
aS'6'
aS'2'
aS'5'
aS'2'
aS'2'
aS'4'
aS'3'
aS'2'
asS'B'
(lp104
I24
aS'Male'
p105
aS'Yes'
p106
aS'5'
aS'5'
aS'2'
aS'5'
aS'2'
aS'3'
aS'5'
aS'2'
aS'3'
asssI7
(dp107
I1
(dp108
S'A'
(lp109
I23
aS'Female'
p110
aS'Yes'
p111
aS'3'
aS'4'
aS'6'
aS'4'
aS'5'
aS'6'
aS'6'
aS'6'
aS'5'
asS'B'
(lp112
I23
aS'Female'
p113
aS'Yes'
p114
aS'5'
aS'5'
aS'3'
aS'5'
aS'3'
aS'2'
aS'2'
aS'2'
aS'2'
assI2
(dp115
S'A'
(lp116
I23
aS'Female'
p117
aS'Yes'
p118
aS'4'
aS'6'
aS'5'
aS'3'
aS'4'
aS'5'
aS'6'
aS'5'
aS'3'
asS'B'
(lp119
I23
aS'Female'
p120
aS'Yes'
p121
aS'4'
aS'6'
aS'4'
aS'5'
aS'2'
aS'1'
aS'4'
aS'2'
aS'3'
asssI8
(dp122
I1
(dp123
S'A'
(lp124
I23
aS'Female'
p125
aS'Yes'
p126
aS'6'
aS'5'
aS'7'
aS'5'
aS'6'
aS'7'
aS'7'
aS'6'
aS'1'
asS'B'
(lp127
I23
aS'Female'
p128
aS'Yes'
p129
aS'7'
aS'6'
aS'7'
aS'5'
aS'5'
aS'7'
aS'7'
aS'6'
aS'1'
assI2
(dp130
S'A'
(lp131
I23
aS'Female'
p132
aS'Yes'
p133
aS'6'
aS'7'
aS'2'
aS'6'
aS'3'
aS'5'
aS'7'
aS'2'
aS'2'
asS'B'
(lp134
I23
aS'Female'
p135
aS'Yes'
p136
aS'6'
aS'5'
aS'1'
aS'4'
aS'5'
aS'2'
aS'5'
aS'2'
aS'1'
asssI9
(dp137
I1
(dp138
S'A'
(lp139
I22
aS'Male'
p140
aS'Yes'
p141
aS'6'
aS'5'
aS'4'
aS'4'
aS'3'
aS'4'
aS'5'
aS'5'
aS'3'
asS'B'
(lp142
I22
aS'Male'
p143
aS'Yes'
p144
aS'5'
aS'5'
aS'2'
aS'5'
aS'3'
aS'2'
aS'3'
aS'3'
aS'4'
assI2
(dp145
S'A'
(lp146
I22
aS'Male'
p147
aS'Yes'
p148
aS'5'
aS'5'
aS'4'
aS'5'
aS'5'
aS'4'
aS'2'
aS'2'
aS'4'
asS'B'
(lp149
I22
aS'Male'
p150
aS'Yes'
p151
aS'4'
aS'4'
aS'3'
aS'3'
aS'5'
aS'3'
aS'6'
aS'4'
aS'3'
asssI10
(dp152
I1
(dp153
S'A'
(lp154
I22
aS'Non-binary trans-masculine'
p155
aS'Yes'
p156
aS'6'
aS'3'
aS'6'
aS'3'
aS'6'
aS'6'
aS'7'
aS'7'
aS'2'
asS'B'
(lp157
I22
aS'Non-binary trans-masculine'
p158
aS'Yes'
p159
aS'7'
aS'7'
aS'1'
aS'7'
aS'1'
aS'1'
aS'1'
aS'1'
aS'4'
assI2
(dp160
S'A'
(lp161
I22
aS'Non-binary trans-masculine'
p162
aS'Yes'
p163
aS'5'
aS'5'
aS'2'
aS'5'
aS'2'
aS'1'
aS'1'
aS'1'
aS'1'
asS'B'
(lp164
I22
aS'Non-binary trans-masculine'
p165
aS'Yes'
p166
aS'7'
aS'5'
aS'3'
aS'5'
aS'3'
aS'2'
aS'5'
aS'1'
aS'1'
asssI11
(dp167
I1
(dp168
S'A'
(lp169
I28
aS'Female'
p170
aS'No'
p171
aS'2'
aS'2'
aS'6'
aS'3'
aS'5'
aS'5'
aS'6'
aS'6'
aS'2'
asS'B'
(lp172
I28
aS'Female'
p173
aS'No'
p174
aS'6'
aS'6'
aS'1'
aS'5'
aS'2'
aS'2'
aS'6'
aS'1'
aS'1'
assI2
(dp175
S'A'
(lp176
I28
aS'Female'
p177
aS'No'
p178
aS'4'
aS'5'
aS'2'
aS'5'
aS'1'
aS'1'
aS'1'
aS'2'
aS'2'
asS'B'
(lp179
I28
aS'Female'
p180
aS'No'
p181
aS'3'
aS'1'
aS'2'
aS'2'
aS'6'
aS'2'
aS'2'
aS'2'
aS'2'
asss.