(dp1
I0
(dp2
I1
(dp3
S'A'
(lp4
I23
aS'Female'
p5
aS'4'
aS'7'
aS'6'
aS'4'
aS'5'
aS'6'
aS'6'
aS'6'
aS'2'
aS'6\n'
p6
asS'B'
(lp7
I23
aS'Female'
p8
aS'4'
aS'7'
aS'5'
aS'5'
aS'3'
aS'1'
aS'1'
aS'1'
aS'1'
aS'4\n'
p9
assI2
(dp10
S'A'
(lp11
I23
aS'Female'
p12
aS'3'
aS'6'
aS'6'
aS'3'
aS'5'
aS'6'
aS'7'
aS'4'
aS'3'
aS'5\n'
p13
asS'B'
(lp14
I23
aS'Female'
p15
aS'3'
aS'5'
aS'2'
aS'4'
aS'2'
aS'2'
aS'1'
aS'3'
aS'5'
aS'3\n'
p16
asssI1
(dp17
I1
(dp18
S'A'
(lp19
I22
aS'Female'
p20
aS'6'
aS'6'
aS'3'
aS'6'
aS'3'
aS'6'
aS'6'
aS'6'
aS'3'
aS'6\n'
p21
asS'B'
(lp22
I22
aS'Female'
p23
aS'6'
aS'6'
aS'3'
aS'6'
aS'2'
aS'3'
aS'6'
aS'5'
aS'2'
aS'6\n'
p24
assI2
(dp25
S'A'
(lp26
I22
aS'Female'
p27
aS'6'
aS'6'
aS'4'
aS'6'
aS'4'
aS'6'
aS'6'
aS'6'
aS'4'
aS'6\n'
p28
asS'B'
(lp29
I22
aS'Female'
p30
aS'6'
aS'6'
aS'2'
aS'6'
aS'2'
aS'3'
aS'4'
aS'2'
aS'2'
aS'6\n'
p31
asssI2
(dp32
I1
(dp33
S'A'
(lp34
I24
aS'Female'
p35
aS'5'
aS'5'
aS'5'
aS'5'
aS'4'
aS'4'
aS'5'
aS'5'
aS'4'
aS'4\n'
p36
asS'B'
(lp37
I24
aS'Female'
p38
aS'5'
aS'5'
aS'3'
aS'5'
aS'3'
aS'3'
aS'4'
aS'3'
aS'4'
aS'4\n'
p39
assI2
(dp40
S'A'
(lp41
I24
aS'Female'
p42
aS'5'
aS'5'
aS'5'
aS'4'
aS'4'
aS'5'
aS'5'
aS'4'
aS'5'
aS'3\n'
p43
asS'B'
(lp44
I24
aS'Female'
p45
aS'6'
aS'6'
aS'3'
aS'5'
aS'3'
aS'3'
aS'3'
aS'3'
aS'4'
aS'4\n'
p46
asssI3
(dp47
I1
(dp48
S'A'
(lp49
I23
aS'Male'
p50
aS'4'
aS'3'
aS'6'
aS'2'
aS'6'
aS'6'
aS'6'
aS'6'
aS'3'
aS'2\n'
p51
asS'B'
(lp52
I23
aS'Male'
p53
aS'6'
aS'6'
aS'2'
aS'6'
aS'2'
aS'2'
aS'2'
aS'2'
aS'2'
aS'6\n'
p54
assI2
(dp55
S'A'
(lp56
I23
aS'Male'
p57
aS'2'
aS'2'
aS'6'
aS'1'
aS'7'
aS'7'
aS'7'
aS'7'
aS'6'
aS'2\n'
p58
asS'B'
(lp59
I23
aS'Male'
p60
aS'5'
aS'5'
aS'2'
aS'5'
aS'3'
aS'3'
aS'3'
aS'2'
aS'2'
aS'6\n'
p61
asssI4
(dp62
I1
(dp63
S'A'
(lp64
I22
aS'Female'
p65
aS'6'
aS'7'
aS'2'
aS'6'
aS'2'
aS'1'
aS'1'
aS'1'
aS'2'
aS'4\n'
p66
asS'B'
(lp67
I22
aS'Female'
p68
aS'6'
aS'6'
aS'3'
aS'5'
aS'5'
aS'5'
aS'6'
aS'5'
aS'2'
aS'6\n'
p69
assI2
(dp70
S'A'
(lp71
I22
aS'Female'
p72
aS'5'
aS'5'
aS'4'
aS'4'
aS'6'
aS'6'
aS'7'
aS'6'
aS'3'
aS'5\n'
p73
asS'B'
(lp74
I22
aS'Female'
p75
aS'5'
aS'4'
aS'4'
aS'5'
aS'4'
aS'6'
aS'6'
aS'5'
aS'3'
aS'5\n'
p76
asssI5
(dp77
I1
(dp78
S'A'
(lp79
I23
aS'Male'
p80
aS'7'
aS'6'
aS'1'
aS'6'
aS'2'
aS'1'
aS'3'
aS'1'
aS'1'
aS'7\n'
p81
asS'B'
(lp82
I23
aS'Male'
p83
aS'5'
aS'5'
aS'2'
aS'5'
aS'2'
aS'1'
aS'1'
aS'2'
aS'4'
aS'6\n'
p84
assI2
(dp85
S'A'
(lp86
I23
aS'Male'
p87
aS'7'
aS'7'
aS'1'
aS'7'
aS'1'
aS'1'
aS'1'
aS'1'
aS'1'
aS'7\n'
p88
asS'B'
(lp89
I23
aS'Male'
p90
aS'6'
aS'5'
aS'2'
aS'6'
aS'3'
aS'2'
aS'3'
aS'3'
aS'2'
aS'6\n'
p91
asssI6
(dp92
I1
(dp93
S'A'
(lp94
I24
aS'Male'
p95
aS'5'
aS'5'
aS'5'
aS'3'
aS'5'
aS'6'
aS'6'
aS'5'
aS'3'
aS'5\n'
p96
asS'B'
(lp97
I24
aS'Male'
p98
aS'6'
aS'5'
aS'4'
aS'5'
aS'3'
aS'2'
aS'2'
aS'2'
aS'2'
aS'5\n'
p99
assI2
(dp100
S'A'
(lp101
I24
aS'Male'
p102
aS'6'
aS'6'
aS'2'
aS'5'
aS'2'
aS'2'
aS'4'
aS'3'
aS'2'
aS'5\n'
p103
asS'B'
(lp104
I24
aS'Male'
p105
aS'5'
aS'5'
aS'2'
aS'5'
aS'2'
aS'3'
aS'5'
aS'2'
aS'3'
aS'4\n'
p106
asssI7
(dp107
I1
(dp108
S'A'
(lp109
I23
aS'Female'
p110
aS'3'
aS'4'
aS'6'
aS'4'
aS'5'
aS'6'
aS'6'
aS'6'
aS'5'
aS'4\n'
p111
asS'B'
(lp112
I23
aS'Female'
p113
aS'5'
aS'5'
aS'3'
aS'5'
aS'3'
aS'2'
aS'2'
aS'2'
aS'2'
aS'5\n'
p114
assI2
(dp115
S'A'
(lp116
I23
aS'Female'
p117
aS'4'
aS'6'
aS'5'
aS'3'
aS'4'
aS'5'
aS'6'
aS'5'
aS'3'
aS'4\n'
p118
asS'B'
(lp119
I23
aS'Female'
p120
aS'4'
aS'6'
aS'4'
aS'5'
aS'2'
aS'1'
aS'4'
aS'2'
aS'3'
aS'5\n'
p121
asssI8
(dp122
I1
(dp123
S'A'
(lp124
I23
aS'Female'
p125
aS'6'
aS'5'
aS'7'
aS'5'
aS'6'
aS'7'
aS'7'
aS'6'
aS'1'
aS'6\n'
p126
asS'B'
(lp127
I23
aS'Female'
p128
aS'7'
aS'6'
aS'7'
aS'5'
aS'5'
aS'7'
aS'7'
aS'6'
aS'1'
aS'6\n'
p129
assI2
(dp130
S'A'
(lp131
I23
aS'Female'
p132
aS'6'
aS'7'
aS'2'
aS'6'
aS'3'
aS'5'
aS'7'
aS'2'
aS'2'
aS'6\n'
p133
asS'B'
(lp134
I23
aS'Female'
p135
aS'6'
aS'5'
aS'1'
aS'4'
aS'5'
aS'2'
aS'5'
aS'2'
aS'1'
aS'6\n'
p136
asssI9
(dp137
I1
(dp138
S'A'
(lp139
I22
aS'Male'
p140
aS'6'
aS'5'
aS'4'
aS'4'
aS'3'
aS'4'
aS'5'
aS'5'
aS'3'
aS'5\n'
p141
asS'B'
(lp142
I22
aS'Male'
p143
aS'5'
aS'5'
aS'2'
aS'5'
aS'3'
aS'2'
aS'3'
aS'3'
aS'4'
aS'3\n'
p144
assI2
(dp145
S'A'
(lp146
I22
aS'Male'
p147
aS'5'
aS'5'
aS'4'
aS'5'
aS'5'
aS'4'
aS'2'
aS'2'
aS'4'
aS'5\n'
p148
asS'B'
(lp149
I22
aS'Male'
p150
aS'4'
aS'4'
aS'3'
aS'3'
aS'5'
aS'3'
aS'6'
aS'4'
aS'3'
aS'4\n'
p151
asssI10
(dp152
I1
(dp153
S'A'
(lp154
I22
aS'Non-binary trans-masculine'
p155
aS'6'
aS'3'
aS'6'
aS'3'
aS'6'
aS'6'
aS'7'
aS'7'
aS'2'
aS'6\n'
p156
asS'B'
(lp157
I22
aS'Non-binary trans-masculine'
p158
aS'7'
aS'7'
aS'1'
aS'7'
aS'1'
aS'1'
aS'1'
aS'1'
aS'4'
aS'4\n'
p159
assI2
(dp160
S'A'
(lp161
I22
aS'Non-binary trans-masculine'
p162
aS'5'
aS'5'
aS'2'
aS'5'
aS'2'
aS'1'
aS'1'
aS'1'
aS'1'
aS'4\n'
p163
asS'B'
(lp164
I22
aS'Non-binary trans-masculine'
p165
aS'7'
aS'5'
aS'3'
aS'5'
aS'3'
aS'2'
aS'5'
aS'1'
aS'1'
aS'6\n'
p166
asssI11
(dp167
I1
(dp168
S'A'
(lp169
I28
aS'Female'
p170
aS'2'
aS'2'
aS'6'
aS'3'
aS'5'
aS'5'
aS'6'
aS'6'
aS'2'
aS'6\n'
p171
asS'B'
(lp172
I28
aS'Female'
p173
aS'6'
aS'6'
aS'1'
aS'5'
aS'2'
aS'2'
aS'6'
aS'1'
aS'1'
aS'6\n'
p174
assI2
(dp175
S'A'
(lp176
I28
aS'Female'
p177
aS'4'
aS'5'
aS'2'
aS'5'
aS'1'
aS'1'
aS'1'
aS'2'
aS'2'
aS'6\n'
p178
asS'B'
(lp179
I28
aS'Female'
p180
aS'3'
aS'1'
aS'2'
aS'2'
aS'6'
aS'2'
aS'2'
aS'2'
aS'2'
aS'6\n'
p181
asss.